; Function Attrs: mustprogress nofree norecurse nosync nounwind memory(readwrite, inaccessiblemem: none) uwtable
define hidden void @_ZN10ClipperLib11ReversePathERSt6vectorINS_8IntPointESaIS1_EE(ptr nocapture noundef nonnull readonly align 8 dereferenceable(24) %p) local_unnamed_addr #8 {
entry:
  %__tmp.i.i.i.i = alloca %"struct.ClipperLib::IntPoint", align 8
  %0 = load ptr, ptr %p, align 8
  %_M_finish.i = getelementptr inbounds i8, ptr %p, i64 8
  %1 = load ptr, ptr %_M_finish.i, align 8
  %cmp.i.i.i = icmp ne ptr %0, %1
  %__last.sroa.0.09.i.i = getelementptr inbounds i8, ptr %1, i64 -16
  %cmp.i110.i.i = icmp ugt ptr %__last.sroa.0.09.i.i, %0
  %or.cond.i.i = select i1 %cmp.i.i.i, i1 %cmp.i110.i.i, i1 false
  br i1 %or.cond.i.i, label %while.body.i.i, label %_ZSt7reverseIN9__gnu_cxx17__normal_iteratorIPN10ClipperLib8IntPointESt6vectorIS3_SaIS3_EEEEEvT_S9_.exit

while.body.i.i:                                   ; preds = %entry, %while.body.i.i
  %__last.sroa.0.012.i.i = phi ptr [ %__last.sroa.0.0.i.i, %while.body.i.i ], [ %__last.sroa.0.09.i.i, %entry ]
  %__first.sroa.0.011.i.i = phi ptr [ %incdec.ptr.i2.i.i, %while.body.i.i ], [ %0, %entry ]
  call void @llvm.lifetime.start.p0(i64 16, ptr nonnull %__tmp.i.i.i.i)
  call void @llvm.memcpy.p0.p0.i64(ptr noundef nonnull align 8 dereferenceable(16) %__tmp.i.i.i.i, ptr noundef nonnull align 8 dereferenceable(16) %__first.sroa.0.011.i.i, i64 16, i1 false)
  tail call void @llvm.memcpy.p0.p0.i64(ptr noundef nonnull align 8 dereferenceable(16) %__first.sroa.0.011.i.i, ptr noundef nonnull align 8 dereferenceable(16) %__last.sroa.0.012.i.i, i64 16, i1 false)
  call void @llvm.memcpy.p0.p0.i64(ptr noundef nonnull align 8 dereferenceable(16) %__last.sroa.0.012.i.i, ptr noundef nonnull align 8 dereferenceable(16) %__tmp.i.i.i.i, i64 16, i1 false)
  call void @llvm.lifetime.end.p0(i64 16, ptr nonnull %__tmp.i.i.i.i)
  %incdec.ptr.i2.i.i = getelementptr inbounds i8, ptr %__first.sroa.0.011.i.i, i64 16
  %__last.sroa.0.0.i.i = getelementptr inbounds i8, ptr %__last.sroa.0.012.i.i, i64 -16
  %cmp.i1.i.i = icmp ult ptr %incdec.ptr.i2.i.i, %__last.sroa.0.0.i.i
  br i1 %cmp.i1.i.i, label %while.body.i.i, label %_ZSt7reverseIN9__gnu_cxx17__normal_iteratorIPN10ClipperLib8IntPointESt6vectorIS3_SaIS3_EEEEEvT_S9_.exit, !llvm.loop !165

_ZSt7reverseIN9__gnu_cxx17__normal_iteratorIPN10ClipperLib8IntPointESt6vectorIS3_SaIS3_EEEEEvT_S9_.exit: ; preds = %while.body.i.i, %entry
  ret void
}